; Function Attrs: mustprogress uwtable
define dso_local void @_ZN24btMultiBodyDynamicsWorld19setConstraintSolverEP18btConstraintSolver(ptr noundef nonnull align 8 dereferenceable(848) %0, ptr noundef %1) unnamed_addr #0 align 2 {
  %3 = load ptr, ptr %1, align 8, !tbaa !105
  %4 = getelementptr inbounds nuw i8, ptr %3, i64 48
  %5 = load ptr, ptr %4, align 8
  %6 = tail call noundef i32 %5(ptr noundef nonnull align 8 dereferenceable(8) %1)
  %7 = icmp eq i32 %6, 8
  br i1 %7, label %8, label %10

8:                                                ; preds = %2
  %9 = getelementptr inbounds nuw i8, ptr %0, i64 608
  store ptr %1, ptr %9, align 8, !tbaa !159
  br label %10

10:                                               ; preds = %8, %2
  tail call void @_ZN23btDiscreteDynamicsWorld19setConstraintSolverEP18btConstraintSolver(ptr noundef nonnull align 8 dereferenceable(508) %0, ptr noundef nonnull %1)
  ret void
}